target datalayout = "e-m:e-p270:32:32-p271:32:32-p272:64:64-i64:64-i128:128-f80:128-n8:16:32:64-S128"
target triple = "x86_64-pc-linux-gnu"

%struct.stat = type { i64, i64, i64, i32, i32, i32, i32, i64, i64, i64, i64, %struct.timespec, %struct.timespec, %struct.timespec, [3 x i64] }
%struct.timespec = type { i64, i64 }

; Function Attrs: nounwind sspstrong uwtable
define internal i64 @rb_file_grpowned_p(i64 noundef %0, i64 noundef %1) #0 {
  %3 = alloca i64, align 8
  %4 = alloca i64, align 8
  %5 = alloca i64, align 8
  %6 = alloca %struct.stat, align 8
  %7 = alloca i32, align 4
  store i64 %0, ptr %4, align 8, !tbaa !7
  store i64 %1, ptr %5, align 8, !tbaa !7
  call void @llvm.lifetime.start.p0(i64 144, ptr %6) #24
  %8 = load i64, ptr %5, align 8, !tbaa !7
  %9 = call i32 @rb_stat(i64 noundef %8, ptr noundef %6)
  %10 = icmp slt i32 %9, 0
  br i1 %10, label %11, label %12

11:                                               ; preds = %2
  store i64 0, ptr %3, align 8
  store i32 1, ptr %7, align 4
  br label %19

12:                                               ; preds = %2
  %13 = getelementptr inbounds nuw %struct.stat, ptr %6, i32 0, i32 5
  %14 = load i32, ptr %13, align 8, !tbaa !113
  %15 = call i32 @rb_group_member(i32 noundef %14)
  %16 = icmp ne i32 %15, 0
  br i1 %16, label %17, label %18

17:                                               ; preds = %12
  store i64 20, ptr %3, align 8
  store i32 1, ptr %7, align 4
  br label %19

18:                                               ; preds = %12
  store i64 0, ptr %3, align 8
  store i32 1, ptr %7, align 4
  br label %19

19:                                               ; preds = %18, %17, %11
  call void @llvm.lifetime.end.p0(i64 144, ptr %6) #24
  %20 = load i64, ptr %3, align 8
  ret i64 %20
}