; Function Attrs: nounwind sspstrong uwtable
define internal range(i64 0, 21) i64 @rb_file_grpowned_p(i64 %0, i64 noundef %1) #0 {
  %3 = alloca %struct.stat, align 8
  call void @llvm.lifetime.start.p0(i64 144, ptr nonnull %3) #22
  %4 = call fastcc i32 @rb_stat(i64 noundef %1, ptr noundef %3)
  %5 = icmp slt i32 %4, 0
  br i1 %5, label %10, label %6

6:                                                ; preds = %2
  %7 = getelementptr inbounds nuw i8, ptr %3, i64 32
  %8 = load i32, ptr %7, align 8, !tbaa !205
  %9 = call fastcc i32 @rb_group_member(i32 noundef %8)
  %.not = icmp eq i32 %9, 0
  %. = select i1 %.not, i64 0, i64 20
  br label %10

10:                                               ; preds = %6, %2
  %.0 = phi i64 [ 0, %2 ], [ %., %6 ]
  call void @llvm.lifetime.end.p0(i64 144, ptr nonnull %3) #22
  ret i64 %.0
}